target datalayout = "e-m:e-p270:32:32-p271:32:32-p272:64:64-i64:64-i128:128-f80:128-n8:16:32:64-S128"
target triple = "x86_64-pc-linux-gnu"

%struct.AVFilterContext = type { ptr, ptr, ptr, ptr, ptr, i32, ptr, ptr, i32, ptr, ptr, i32, i32, ptr, ptr, ptr, ptr, i32, ptr, i32, i32 }
%struct.ACrusherContext = type { ptr, double, double, double, double, i32, double, double, double, double, i32, double, double, double, double, double, i32, double, double, double, %struct.LFOContext, ptr }
%struct.LFOContext = type { double, double, i32, double, double, double }
%struct.AVFilterLink = type { ptr, ptr, ptr, ptr, i32, i32, i32, i32, %struct.AVRational, i32, i32, i32, %struct.AVChannelLayout, %struct.AVRational, ptr, i32, %struct.AVFilterFormatsConfig, %struct.AVFilterFormatsConfig }
%struct.AVChannelLayout = type { i32, i32, %union.anon.1, ptr }
%union.anon.1 = type { i64 }
%struct.AVRational = type { i32, i32 }
%struct.AVFilterFormatsConfig = type { ptr, ptr, ptr, ptr, ptr }

; Function Attrs: nounwind uwtable
define internal i32 @config_input(ptr noundef %0) #1 {
  %2 = alloca i32, align 4
  %3 = alloca ptr, align 8
  %4 = alloca ptr, align 8
  %5 = alloca ptr, align 8
  %6 = alloca double, align 8
  %7 = alloca double, align 8
  %8 = alloca double, align 8
  %9 = alloca double, align 8
  %10 = alloca i32, align 4
  store ptr %0, ptr %3, align 8, !tbaa !27
  call void @llvm.lifetime.start.p0(i64 8, ptr %4) #6
  %11 = load ptr, ptr %3, align 8, !tbaa !27
  %12 = getelementptr inbounds nuw %struct.AVFilterLink, ptr %11, i32 0, i32 2
  %13 = load ptr, ptr %12, align 8, !tbaa !31
  store ptr %13, ptr %4, align 8, !tbaa !4
  call void @llvm.lifetime.start.p0(i64 8, ptr %5) #6
  %14 = load ptr, ptr %4, align 8, !tbaa !4
  %15 = getelementptr inbounds nuw %struct.AVFilterContext, ptr %14, i32 0, i32 9
  %16 = load ptr, ptr %15, align 8, !tbaa !9
  store ptr %16, ptr %5, align 8, !tbaa !22
  call void @llvm.lifetime.start.p0(i64 8, ptr %6) #6
  call void @llvm.lifetime.start.p0(i64 8, ptr %7) #6
  call void @llvm.lifetime.start.p0(i64 8, ptr %8) #6
  call void @llvm.lifetime.start.p0(i64 8, ptr %9) #6
  %17 = load ptr, ptr %5, align 8, !tbaa !22
  %18 = getelementptr inbounds nuw %struct.ACrusherContext, ptr %17, i32 0, i32 6
  %19 = load double, ptr %18, align 8, !tbaa !66
  %20 = fdiv nsz double 1.000000e+00, %19
  %21 = load ptr, ptr %5, align 8, !tbaa !22
  %22 = getelementptr inbounds nuw %struct.ACrusherContext, ptr %21, i32 0, i32 7
  store double %20, ptr %22, align 8, !tbaa !67
  %23 = load ptr, ptr %5, align 8, !tbaa !22
  %24 = getelementptr inbounds nuw %struct.ACrusherContext, ptr %23, i32 0, i32 3
  %25 = load double, ptr %24, align 8, !tbaa !68
  %26 = call nsz double @llvm.exp2.f64(double %25)
  %27 = fsub nsz double %26, 1.000000e+00
  %28 = load ptr, ptr %5, align 8, !tbaa !22
  %29 = getelementptr inbounds nuw %struct.ACrusherContext, ptr %28, i32 0, i32 15
  store double %27, ptr %29, align 8, !tbaa !69
  %30 = load ptr, ptr %5, align 8, !tbaa !22
  %31 = getelementptr inbounds nuw %struct.ACrusherContext, ptr %30, i32 0, i32 15
  %32 = load double, ptr %31, align 8, !tbaa !69
  %33 = fdiv nsz double %32, 2.000000e+00
  %34 = call nsz double @llvm.sqrt.f64(double %33)
  %35 = load ptr, ptr %5, align 8, !tbaa !22
  %36 = getelementptr inbounds nuw %struct.ACrusherContext, ptr %35, i32 0, i32 13
  store double %34, ptr %36, align 8, !tbaa !70
  %37 = load ptr, ptr %5, align 8, !tbaa !22
  %38 = getelementptr inbounds nuw %struct.ACrusherContext, ptr %37, i32 0, i32 8
  %39 = load double, ptr %38, align 8, !tbaa !71
  %40 = fsub nsz double 1.000000e+00, %39
  %41 = fdiv nsz double %40, 2.000000e+00
  %42 = load ptr, ptr %5, align 8, !tbaa !22
  %43 = getelementptr inbounds nuw %struct.ACrusherContext, ptr %42, i32 0, i32 14
  store double %41, ptr %43, align 8, !tbaa !72
  %44 = load ptr, ptr %5, align 8, !tbaa !22
  %45 = getelementptr inbounds nuw %struct.ACrusherContext, ptr %44, i32 0, i32 9
  %46 = load double, ptr %45, align 8, !tbaa !58
  %47 = call nsz double @llvm.round.f64(double %46)
  %48 = fptosi double %47 to i32
  %49 = load ptr, ptr %5, align 8, !tbaa !22
  %50 = getelementptr inbounds nuw %struct.ACrusherContext, ptr %49, i32 0, i32 16
  store i32 %48, ptr %50, align 8, !tbaa !59
  %51 = load ptr, ptr %5, align 8, !tbaa !22
  %52 = getelementptr inbounds nuw %struct.ACrusherContext, ptr %51, i32 0, i32 11
  %53 = load double, ptr %52, align 8, !tbaa !73
  %54 = fdiv nsz double %53, 2.000000e+00
  store double %54, ptr %6, align 8, !tbaa !46
  %55 = load ptr, ptr %5, align 8, !tbaa !22
  %56 = getelementptr inbounds nuw %struct.ACrusherContext, ptr %55, i32 0, i32 9
  %57 = load double, ptr %56, align 8, !tbaa !58
  %58 = load double, ptr %6, align 8, !tbaa !46
  %59 = fsub nsz double %57, %58
  %60 = fcmp nsz ogt double %59, 1.000000e+00
  br i1 %60, label %61, label %67

61:                                               ; preds = %1
  %62 = load ptr, ptr %5, align 8, !tbaa !22
  %63 = getelementptr inbounds nuw %struct.ACrusherContext, ptr %62, i32 0, i32 9
  %64 = load double, ptr %63, align 8, !tbaa !58
  %65 = load double, ptr %6, align 8, !tbaa !46
  %66 = fsub nsz double %64, %65
  br label %68

67:                                               ; preds = %1
  br label %68

68:                                               ; preds = %67, %61
  %69 = phi nsz double [ %66, %61 ], [ 1.000000e+00, %67 ]
  %70 = load ptr, ptr %5, align 8, !tbaa !22
  %71 = getelementptr inbounds nuw %struct.ACrusherContext, ptr %70, i32 0, i32 18
  store double %69, ptr %71, align 8, !tbaa !56
  %72 = load ptr, ptr %5, align 8, !tbaa !22
  %73 = getelementptr inbounds nuw %struct.ACrusherContext, ptr %72, i32 0, i32 9
  %74 = load double, ptr %73, align 8, !tbaa !58
  %75 = load double, ptr %6, align 8, !tbaa !46
  %76 = fsub nsz double %74, %75
  %77 = load ptr, ptr %5, align 8, !tbaa !22
  %78 = getelementptr inbounds nuw %struct.ACrusherContext, ptr %77, i32 0, i32 18
  %79 = load double, ptr %78, align 8, !tbaa !56
  %80 = fsub nsz double %76, %79
  store double %80, ptr %7, align 8, !tbaa !46
  %81 = load ptr, ptr %5, align 8, !tbaa !22
  %82 = getelementptr inbounds nuw %struct.ACrusherContext, ptr %81, i32 0, i32 9
  %83 = load double, ptr %82, align 8, !tbaa !58
  %84 = load double, ptr %6, align 8, !tbaa !46
  %85 = fadd nsz double %83, %84
  %86 = fcmp nsz ogt double %85, 2.500000e+02
  br i1 %86, label %87, label %88

87:                                               ; preds = %68
  br label %94

88:                                               ; preds = %68
  %89 = load ptr, ptr %5, align 8, !tbaa !22
  %90 = getelementptr inbounds nuw %struct.ACrusherContext, ptr %89, i32 0, i32 9
  %91 = load double, ptr %90, align 8, !tbaa !58
  %92 = load double, ptr %6, align 8, !tbaa !46
  %93 = fadd nsz double %91, %92
  br label %94

94:                                               ; preds = %88, %87
  %95 = phi nsz double [ 2.500000e+02, %87 ], [ %93, %88 ]
  store double %95, ptr %8, align 8, !tbaa !46
  %96 = load ptr, ptr %5, align 8, !tbaa !22
  %97 = getelementptr inbounds nuw %struct.ACrusherContext, ptr %96, i32 0, i32 9
  %98 = load double, ptr %97, align 8, !tbaa !58
  %99 = load double, ptr %6, align 8, !tbaa !46
  %100 = fadd nsz double %98, %99
  %101 = load double, ptr %8, align 8, !tbaa !46
  %102 = fsub nsz double %100, %101
  store double %102, ptr %9, align 8, !tbaa !46
  %103 = load double, ptr %7, align 8, !tbaa !46
  %104 = load double, ptr %8, align 8, !tbaa !46
  %105 = fsub nsz double %104, %103
  store double %105, ptr %8, align 8, !tbaa !46
  %106 = load double, ptr %9, align 8, !tbaa !46
  %107 = load ptr, ptr %5, align 8, !tbaa !22
  %108 = getelementptr inbounds nuw %struct.ACrusherContext, ptr %107, i32 0, i32 18
  %109 = load double, ptr %108, align 8, !tbaa !56
  %110 = fsub nsz double %109, %106
  store double %110, ptr %108, align 8, !tbaa !56
  %111 = load double, ptr %8, align 8, !tbaa !46
  %112 = load ptr, ptr %5, align 8, !tbaa !22
  %113 = getelementptr inbounds nuw %struct.ACrusherContext, ptr %112, i32 0, i32 18
  %114 = load double, ptr %113, align 8, !tbaa !56
  %115 = fsub nsz double %111, %114
  %116 = load ptr, ptr %5, align 8, !tbaa !22
  %117 = getelementptr inbounds nuw %struct.ACrusherContext, ptr %116, i32 0, i32 19
  store double %115, ptr %117, align 8, !tbaa !57
  %118 = load ptr, ptr %5, align 8, !tbaa !22
  %119 = getelementptr inbounds nuw %struct.ACrusherContext, ptr %118, i32 0, i32 12
  %120 = load double, ptr %119, align 8, !tbaa !74
  %121 = load ptr, ptr %5, align 8, !tbaa !22
  %122 = getelementptr inbounds nuw %struct.ACrusherContext, ptr %121, i32 0, i32 20
  %123 = getelementptr inbounds nuw %struct.LFOContext, ptr %122, i32 0, i32 0
  store double %120, ptr %123, align 8, !tbaa !75
  %124 = load ptr, ptr %5, align 8, !tbaa !22
  %125 = getelementptr inbounds nuw %struct.ACrusherContext, ptr %124, i32 0, i32 20
  %126 = getelementptr inbounds nuw %struct.LFOContext, ptr %125, i32 0, i32 4
  store double 1.000000e+00, ptr %126, align 8, !tbaa !76
  %127 = load ptr, ptr %3, align 8, !tbaa !27
  %128 = getelementptr inbounds nuw %struct.AVFilterLink, ptr %127, i32 0, i32 11
  %129 = load i32, ptr %128, align 8, !tbaa !77
  %130 = load ptr, ptr %5, align 8, !tbaa !22
  %131 = getelementptr inbounds nuw %struct.ACrusherContext, ptr %130, i32 0, i32 20
  %132 = getelementptr inbounds nuw %struct.LFOContext, ptr %131, i32 0, i32 2
  store i32 %129, ptr %132, align 8, !tbaa !78
  %133 = load ptr, ptr %5, align 8, !tbaa !22
  %134 = getelementptr inbounds nuw %struct.ACrusherContext, ptr %133, i32 0, i32 20
  %135 = getelementptr inbounds nuw %struct.LFOContext, ptr %134, i32 0, i32 3
  store double 5.000000e-01, ptr %135, align 8, !tbaa !79
  %136 = load ptr, ptr %5, align 8, !tbaa !22
  %137 = getelementptr inbounds nuw %struct.ACrusherContext, ptr %136, i32 0, i32 21
  %138 = load ptr, ptr %137, align 8, !tbaa !61
  %139 = icmp ne ptr %138, null
  br i1 %139, label %149, label %140

140:                                              ; preds = %94
  %141 = load ptr, ptr %3, align 8, !tbaa !27
  %142 = getelementptr inbounds nuw %struct.AVFilterLink, ptr %141, i32 0, i32 12
  %143 = getelementptr inbounds nuw %struct.AVChannelLayout, ptr %142, i32 0, i32 1
  %144 = load i32, ptr %143, align 4, !tbaa !60
  %145 = sext i32 %144 to i64
  %146 = call noalias ptr @av_calloc(i64 noundef %145, i64 noundef 32)
  %147 = load ptr, ptr %5, align 8, !tbaa !22
  %148 = getelementptr inbounds nuw %struct.ACrusherContext, ptr %147, i32 0, i32 21
  store ptr %146, ptr %148, align 8, !tbaa !61
  br label %149

149:                                              ; preds = %140, %94
  %150 = load ptr, ptr %5, align 8, !tbaa !22
  %151 = getelementptr inbounds nuw %struct.ACrusherContext, ptr %150, i32 0, i32 21
  %152 = load ptr, ptr %151, align 8, !tbaa !61
  %153 = icmp ne ptr %152, null
  br i1 %153, label %155, label %154

154:                                              ; preds = %149
  store i32 -12, ptr %2, align 4
  store i32 1, ptr %10, align 4
  br label %156

155:                                              ; preds = %149
  store i32 0, ptr %2, align 4
  store i32 1, ptr %10, align 4
  br label %156

156:                                              ; preds = %155, %154
  call void @llvm.lifetime.end.p0(i64 8, ptr %9) #6
  call void @llvm.lifetime.end.p0(i64 8, ptr %8) #6
  call void @llvm.lifetime.end.p0(i64 8, ptr %7) #6
  call void @llvm.lifetime.end.p0(i64 8, ptr %6) #6
  call void @llvm.lifetime.end.p0(i64 8, ptr %5) #6
  call void @llvm.lifetime.end.p0(i64 8, ptr %4) #6
  %157 = load i32, ptr %2, align 4
  ret i32 %157
}