; Function Attrs: nounwind uwtable
define internal range(i32 -12, 1) i32 @config_input(ptr noundef readonly captures(none) %0) #1 {
  %2 = getelementptr inbounds nuw i8, ptr %0, i64 16
  %3 = load ptr, ptr %2, align 8, !tbaa !25
  %4 = getelementptr inbounds nuw i8, ptr %3, i64 72
  %5 = load ptr, ptr %4, align 8, !tbaa !4
  %6 = getelementptr inbounds nuw i8, ptr %5, i64 48
  %7 = load double, ptr %6, align 8, !tbaa !71
  %8 = fdiv nsz double 1.000000e+00, %7
  %9 = getelementptr inbounds nuw i8, ptr %5, i64 56
  store double %8, ptr %9, align 8, !tbaa !72
  %10 = getelementptr inbounds nuw i8, ptr %5, i64 24
  %11 = load double, ptr %10, align 8, !tbaa !79
  %12 = tail call nsz double @llvm.exp2.f64(double %11)
  %13 = fadd nsz double %12, -1.000000e+00
  %14 = getelementptr inbounds nuw i8, ptr %5, i64 120
  store double %13, ptr %14, align 8, !tbaa !68
  %15 = fmul nsz double %13, 5.000000e-01
  %16 = tail call nsz double @llvm.sqrt.f64(double %15)
  %17 = getelementptr inbounds nuw i8, ptr %5, i64 104
  store double %16, ptr %17, align 8, !tbaa !67
  %18 = getelementptr inbounds nuw i8, ptr %5, i64 64
  %19 = load double, ptr %18, align 8, !tbaa !69
  %20 = fsub nsz double 1.000000e+00, %19
  %21 = fmul nsz double %20, 5.000000e-01
  %22 = getelementptr inbounds nuw i8, ptr %5, i64 112
  store double %21, ptr %22, align 8, !tbaa !70
  %23 = getelementptr inbounds nuw i8, ptr %5, i64 72
  %24 = load double, ptr %23, align 8, !tbaa !56
  %25 = tail call nsz double @llvm.round.f64(double %24)
  %26 = fptosi double %25 to i32
  %27 = getelementptr inbounds nuw i8, ptr %5, i64 128
  store i32 %26, ptr %27, align 8, !tbaa !57
  %28 = getelementptr inbounds nuw i8, ptr %5, i64 88
  %29 = load double, ptr %28, align 8, !tbaa !80
  %30 = fmul nsz double %29, 5.000000e-01
  %31 = fsub nsz double %24, %30
  %32 = fcmp nsz ogt double %31, 1.000000e+00
  %33 = select nsz i1 %32, double %31, double 1.000000e+00
  %34 = getelementptr inbounds nuw i8, ptr %5, i64 144
  %35 = fadd nsz double %24, %30
  %36 = fcmp nsz ogt double %35, 2.500000e+02
  %37 = select nsz i1 %36, double 2.500000e+02, double %35
  %38 = fsub nsz double %30, %24
  %39 = fadd nsz double %38, %33
  %40 = fadd nsz double %37, %39
  %41 = fsub nsz double %37, %35
  %42 = fadd nsz double %33, %41
  store double %42, ptr %34, align 8, !tbaa !50
  %43 = fsub nsz double %40, %42
  %44 = getelementptr inbounds nuw i8, ptr %5, i64 152
  store double %43, ptr %44, align 8, !tbaa !51
  %45 = getelementptr inbounds nuw i8, ptr %5, i64 96
  %46 = load double, ptr %45, align 8, !tbaa !81
  %47 = getelementptr inbounds nuw i8, ptr %5, i64 160
  store double %46, ptr %47, align 8, !tbaa !82
  %48 = getelementptr inbounds nuw i8, ptr %5, i64 192
  store double 1.000000e+00, ptr %48, align 8, !tbaa !83
  %49 = getelementptr inbounds nuw i8, ptr %0, i64 64
  %50 = load i32, ptr %49, align 8, !tbaa !84
  %51 = getelementptr inbounds nuw i8, ptr %5, i64 176
  store i32 %50, ptr %51, align 8, !tbaa !85
  %52 = getelementptr inbounds nuw i8, ptr %5, i64 184
  store double 5.000000e-01, ptr %52, align 8, !tbaa !86
  %53 = getelementptr inbounds nuw i8, ptr %5, i64 208
  %54 = load ptr, ptr %53, align 8, !tbaa !60
  %.not = icmp eq ptr %54, null
  br i1 %.not, label %55, label %62

55:                                               ; preds = %1
  %56 = getelementptr inbounds nuw i8, ptr %0, i64 76
  %57 = load i32, ptr %56, align 4, !tbaa !58
  %58 = sext i32 %57 to i64
  %59 = tail call noalias ptr @av_calloc(i64 noundef %58, i64 noundef 32) #5
  store ptr %59, ptr %53, align 8, !tbaa !60
  %60 = icmp eq ptr %59, null
  %61 = select i1 %60, i32 -12, i32 0
  br label %62

62:                                               ; preds = %55, %1
  %.not47 = phi i32 [ %61, %55 ], [ 0, %1 ]
  ret i32 %.not47
}